; Function Attrs: nounwind sspstrong uwtable
define internal void @blkdebug_child_perm(ptr noundef %bs, ptr noundef %c, i32 noundef %role, ptr noundef %reopen_queue, i64 noundef %perm, i64 noundef %shared, ptr noundef %nperm, ptr noundef %nshared) #0 {
entry:
  %opaque = getelementptr inbounds nuw i8, ptr %bs, i64 24
  %0 = load ptr, ptr %opaque, align 8
  tail call void @bdrv_default_perms(ptr noundef %bs, ptr noundef %c, i32 noundef %role, ptr noundef %reopen_queue, i64 noundef %perm, i64 noundef %shared, ptr noundef %nperm, ptr noundef %nshared) #13
  %take_child_perms = getelementptr inbounds nuw i8, ptr %0, i64 56
  %1 = load i64, ptr %take_child_perms, align 8
  %2 = load i64, ptr %nperm, align 8
  %or = or i64 %2, %1
  store i64 %or, ptr %nperm, align 8
  %unshare_child_perms = getelementptr inbounds nuw i8, ptr %0, i64 64
  %3 = load i64, ptr %unshare_child_perms, align 8
  %not = xor i64 %3, -1
  %4 = load i64, ptr %nshared, align 8
  %and = and i64 %4, %not
  store i64 %and, ptr %nshared, align 8
  ret void
}